; Function Attrs: nounwind uwtable
define nonnull ptr @l_Lean_Server_FileWorker_handleSemanticTokensRange___lambda__1___boxed(ptr noundef %0, ptr noundef %1) #0 {
  %3 = tail call ptr @l_Lean_Server_Snapshots_Snapshot_endPos(ptr noundef %1) #7
  %4 = ptrtoint ptr %0 to i64
  %5 = and i64 %4, 1
  %6 = icmp ne i64 %5, 0
  %7 = ptrtoint ptr %3 to i64
  %8 = and i64 %7, 1
  %9 = icmp ne i64 %8, 0
  %or.cond.i = select i1 %6, i1 %9, i1 false
  br i1 %or.cond.i, label %lean_nat_le.exit.thread.i, label %lean_nat_le.exit.i, !prof !16

lean_nat_le.exit.thread.i:                        ; preds = %2
  %10 = icmp ule ptr %0, %3
  br label %l_Lean_Server_FileWorker_handleSemanticTokensRange___lambda__1.exit

lean_nat_le.exit.i:                               ; preds = %2
  %11 = tail call zeroext i1 @lean_nat_big_le(ptr noundef %0, ptr noundef %3) #7
  %.not.i8 = icmp eq i64 %8, 0
  br i1 %.not.i8, label %12, label %l_Lean_Server_FileWorker_handleSemanticTokensRange___lambda__1.exit

12:                                               ; preds = %lean_nat_le.exit.i
  %13 = load i32, ptr %3, align 4, !tbaa !8
  %14 = icmp sgt i32 %13, 1
  br i1 %14, label %15, label %17, !prof !14

15:                                               ; preds = %12
  %16 = add nsw i32 %13, -1
  store i32 %16, ptr %3, align 4, !tbaa !8
  br label %l_Lean_Server_FileWorker_handleSemanticTokensRange___lambda__1.exit

17:                                               ; preds = %12
  %.not.i.i = icmp eq i32 %13, 0
  br i1 %.not.i.i, label %l_Lean_Server_FileWorker_handleSemanticTokensRange___lambda__1.exit, label %18

18:                                               ; preds = %17
  tail call void @lean_dec_ref_cold(ptr noundef nonnull %3) #7
  br label %l_Lean_Server_FileWorker_handleSemanticTokensRange___lambda__1.exit

l_Lean_Server_FileWorker_handleSemanticTokensRange___lambda__1.exit: ; preds = %lean_nat_le.exit.thread.i, %lean_nat_le.exit.i, %15, %17, %18
  %.0.i8.i = phi i1 [ %10, %lean_nat_le.exit.thread.i ], [ %11, %18 ], [ %11, %17 ], [ %11, %15 ], [ %11, %lean_nat_le.exit.i ]
  %19 = ptrtoint ptr %1 to i64
  %20 = and i64 %19, 1
  %.not = icmp eq i64 %20, 0
  br i1 %.not, label %21, label %lean_dec.exit5

21:                                               ; preds = %l_Lean_Server_FileWorker_handleSemanticTokensRange___lambda__1.exit
  %22 = load i32, ptr %1, align 4, !tbaa !8
  %23 = icmp sgt i32 %22, 1
  br i1 %23, label %24, label %26, !prof !14

24:                                               ; preds = %21
  %25 = add nsw i32 %22, -1
  store i32 %25, ptr %1, align 4, !tbaa !8
  br label %lean_dec.exit5

26:                                               ; preds = %21
  %.not.i = icmp eq i32 %22, 0
  br i1 %.not.i, label %lean_dec.exit5, label %27

27:                                               ; preds = %26
  tail call void @lean_dec_ref_cold(ptr noundef nonnull %1) #7
  br label %lean_dec.exit5

lean_dec.exit5:                                   ; preds = %27, %26, %24, %l_Lean_Server_FileWorker_handleSemanticTokensRange___lambda__1.exit
  br i1 %6, label %lean_dec.exit, label %28

28:                                               ; preds = %lean_dec.exit5
  %29 = load i32, ptr %0, align 4, !tbaa !8
  %30 = icmp sgt i32 %29, 1
  br i1 %30, label %31, label %33, !prof !14

31:                                               ; preds = %28
  %32 = add nsw i32 %29, -1
  store i32 %32, ptr %0, align 4, !tbaa !8
  br label %lean_dec.exit

33:                                               ; preds = %28
  %.not.i6 = icmp eq i32 %29, 0
  br i1 %.not.i6, label %lean_dec.exit, label %34

34:                                               ; preds = %33
  tail call void @lean_dec_ref_cold(ptr noundef nonnull %0) #7
  br label %lean_dec.exit

lean_dec.exit:                                    ; preds = %34, %33, %31, %lean_dec.exit5
  %35 = select i1 %.0.i8.i, ptr inttoptr (i64 3 to ptr), ptr inttoptr (i64 1 to ptr)
  ret ptr %35
}